target datalayout = "e-m:e-p270:32:32-p271:32:32-p272:64:64-i64:64-i128:128-f80:128-n8:16:32:64-S128"
target triple = "x86_64-pc-linux-gnu"

%struct._packet_info = type { ptr, ptr, i32, i32, %struct.nstime_t, %struct.nstime_t, %struct.nstime_t, i8, ptr, ptr, ptr, ptr, %struct._address, %struct._address, %struct._address, %struct._address, %struct._address, %struct._address, i32, ptr, i8, [3 x i8], %struct.anon, i32, i32, i32, i32, ptr, i8, ptr, ptr, i16, i16, i32, i32, i16, i32, i32, ptr, ptr, ptr, i8, i8, i16, i16, i16, i32, i16, i16, ptr, ptr, ptr, ptr, ptr, i32, i32 }
%struct.nstime_t = type { i64, i32 }
%struct._address = type { i32, i32, ptr, ptr }
%struct.anon = type { i8, [3 x i8] }

@hf_usbhid_boot_report_keyboard_leds_constants = internal global i32 0, align 4
@hf_usbhid_boot_report_keyboard_leds_kana = internal global i32 0, align 4
@hf_usbhid_boot_report_keyboard_leds_compose = internal global i32 0, align 4
@hf_usbhid_boot_report_keyboard_leds_scroll_lock = internal global i32 0, align 4
@hf_usbhid_boot_report_keyboard_leds_caps_lock = internal global i32 0, align 4
@hf_usbhid_boot_report_keyboard_leds_num_lock = internal global i32 0, align 4
@.str.802 = private unnamed_addr constant [8 x i8] c"Compose\00", align 1
@.str.803 = private unnamed_addr constant [5 x i8] c"Kana\00", align 1
@.str.3261 = private unnamed_addr constant [9 x i8] c"CapsLock\00", align 1
@.str.3275 = private unnamed_addr constant [11 x i8] c"ScrollLock\00", align 1
@.str.3286 = private unnamed_addr constant [8 x i8] c"NumLock\00", align 1
@.str.3377 = private unnamed_addr constant [10 x i8] c" - LEDs: \00", align 1
@.str.3378 = private unnamed_addr constant [3 x i8] c", \00", align 1
@.str.3379 = private unnamed_addr constant [10 x i8] c"Constant1\00", align 1
@.str.3380 = private unnamed_addr constant [10 x i8] c"Constant2\00", align 1
@.str.3381 = private unnamed_addr constant [10 x i8] c"Constant3\00", align 1
@.str.3382 = private unnamed_addr constant [5 x i8] c"none\00", align 1

; Function Attrs: null_pointer_is_valid sspstrong uwtable
define internal i32 @dissect_usb_hid_boot_keyboard_output_report(ptr noundef %0, ptr noundef %1, ptr noundef %2, ptr noundef %3) #0 {
  %5 = alloca ptr, align 8
  %6 = alloca ptr, align 8
  %7 = alloca ptr, align 8
  %8 = alloca ptr, align 8
  %9 = alloca i32, align 4
  %10 = alloca i8, align 1
  %11 = alloca i32, align 4
  store ptr %0, ptr %5, align 8
  store ptr %1, ptr %6, align 8
  store ptr %2, ptr %7, align 8
  store ptr %3, ptr %8, align 8
  call void @llvm.lifetime.start.p0(i64 4, ptr %9) #11
  store i32 0, ptr %9, align 4
  call void @llvm.lifetime.start.p0(i64 1, ptr %10) #11
  store i8 0, ptr %10, align 1
  call void @llvm.lifetime.start.p0(i64 4, ptr %11) #11
  %12 = load ptr, ptr %7, align 8
  %13 = load i32, ptr @hf_usbhid_boot_report_keyboard_leds_constants, align 4
  %14 = load ptr, ptr %5, align 8
  %15 = load i32, ptr %9, align 4
  %16 = call ptr @proto_tree_add_item(ptr noundef %12, i32 noundef %13, ptr noundef %14, i32 noundef %15, i32 noundef 1, i32 noundef 0)
  %17 = load ptr, ptr %7, align 8
  %18 = load i32, ptr @hf_usbhid_boot_report_keyboard_leds_kana, align 4
  %19 = load ptr, ptr %5, align 8
  %20 = load i32, ptr %9, align 4
  %21 = call ptr @proto_tree_add_item(ptr noundef %17, i32 noundef %18, ptr noundef %19, i32 noundef %20, i32 noundef 1, i32 noundef 0)
  %22 = load ptr, ptr %7, align 8
  %23 = load i32, ptr @hf_usbhid_boot_report_keyboard_leds_compose, align 4
  %24 = load ptr, ptr %5, align 8
  %25 = load i32, ptr %9, align 4
  %26 = call ptr @proto_tree_add_item(ptr noundef %22, i32 noundef %23, ptr noundef %24, i32 noundef %25, i32 noundef 1, i32 noundef 0)
  %27 = load ptr, ptr %7, align 8
  %28 = load i32, ptr @hf_usbhid_boot_report_keyboard_leds_scroll_lock, align 4
  %29 = load ptr, ptr %5, align 8
  %30 = load i32, ptr %9, align 4
  %31 = call ptr @proto_tree_add_item(ptr noundef %27, i32 noundef %28, ptr noundef %29, i32 noundef %30, i32 noundef 1, i32 noundef 0)
  %32 = load ptr, ptr %7, align 8
  %33 = load i32, ptr @hf_usbhid_boot_report_keyboard_leds_caps_lock, align 4
  %34 = load ptr, ptr %5, align 8
  %35 = load i32, ptr %9, align 4
  %36 = call ptr @proto_tree_add_item(ptr noundef %32, i32 noundef %33, ptr noundef %34, i32 noundef %35, i32 noundef 1, i32 noundef 0)
  %37 = load ptr, ptr %7, align 8
  %38 = load i32, ptr @hf_usbhid_boot_report_keyboard_leds_num_lock, align 4
  %39 = load ptr, ptr %5, align 8
  %40 = load i32, ptr %9, align 4
  %41 = call ptr @proto_tree_add_item(ptr noundef %37, i32 noundef %38, ptr noundef %39, i32 noundef %40, i32 noundef 1, i32 noundef 0)
  %42 = load ptr, ptr %5, align 8
  %43 = load i32, ptr %9, align 4
  %44 = call zeroext i8 @tvb_get_uint8(ptr noundef %42, i32 noundef %43)
  %45 = zext i8 %44 to i32
  store i32 %45, ptr %11, align 4
  %46 = load ptr, ptr %6, align 8
  %47 = getelementptr inbounds nuw %struct._packet_info, ptr %46, i32 0, i32 1
  %48 = load ptr, ptr %47, align 8
  call void @col_append_str(ptr noundef %48, i32 noundef 25, ptr noundef @.str.3377)
  %49 = load i32, ptr %11, align 4
  %50 = and i32 %49, 1
  %51 = icmp ne i32 %50, 0
  br i1 %51, label %52, label %56

52:                                               ; preds = %4
  %53 = load ptr, ptr %6, align 8
  %54 = getelementptr inbounds nuw %struct._packet_info, ptr %53, i32 0, i32 1
  %55 = load ptr, ptr %54, align 8
  call void @col_append_str(ptr noundef %55, i32 noundef 25, ptr noundef @.str.3286)
  store i8 1, ptr %10, align 1
  br label %56

56:                                               ; preds = %52, %4
  %57 = load i32, ptr %11, align 4
  %58 = and i32 %57, 2
  %59 = icmp ne i32 %58, 0
  br i1 %59, label %60, label %71

60:                                               ; preds = %56
  %61 = load i8, ptr %10, align 1, !range !8, !noundef !9
  %62 = trunc i8 %61 to i1
  br i1 %62, label %63, label %67

63:                                               ; preds = %60
  %64 = load ptr, ptr %6, align 8
  %65 = getelementptr inbounds nuw %struct._packet_info, ptr %64, i32 0, i32 1
  %66 = load ptr, ptr %65, align 8
  call void @col_append_str(ptr noundef %66, i32 noundef 25, ptr noundef @.str.3378)
  br label %67

67:                                               ; preds = %63, %60
  %68 = load ptr, ptr %6, align 8
  %69 = getelementptr inbounds nuw %struct._packet_info, ptr %68, i32 0, i32 1
  %70 = load ptr, ptr %69, align 8
  call void @col_append_str(ptr noundef %70, i32 noundef 25, ptr noundef @.str.3261)
  store i8 1, ptr %10, align 1
  br label %71

71:                                               ; preds = %67, %56
  %72 = load i32, ptr %11, align 4
  %73 = and i32 %72, 4
  %74 = icmp ne i32 %73, 0
  br i1 %74, label %75, label %86

75:                                               ; preds = %71
  %76 = load i8, ptr %10, align 1, !range !8, !noundef !9
  %77 = trunc i8 %76 to i1
  br i1 %77, label %78, label %82

78:                                               ; preds = %75
  %79 = load ptr, ptr %6, align 8
  %80 = getelementptr inbounds nuw %struct._packet_info, ptr %79, i32 0, i32 1
  %81 = load ptr, ptr %80, align 8
  call void @col_append_str(ptr noundef %81, i32 noundef 25, ptr noundef @.str.3378)
  br label %82

82:                                               ; preds = %78, %75
  %83 = load ptr, ptr %6, align 8
  %84 = getelementptr inbounds nuw %struct._packet_info, ptr %83, i32 0, i32 1
  %85 = load ptr, ptr %84, align 8
  call void @col_append_str(ptr noundef %85, i32 noundef 25, ptr noundef @.str.3275)
  store i8 1, ptr %10, align 1
  br label %86

86:                                               ; preds = %82, %71
  %87 = load i32, ptr %11, align 4
  %88 = and i32 %87, 8
  %89 = icmp ne i32 %88, 0
  br i1 %89, label %90, label %101

90:                                               ; preds = %86
  %91 = load i8, ptr %10, align 1, !range !8, !noundef !9
  %92 = trunc i8 %91 to i1
  br i1 %92, label %93, label %97

93:                                               ; preds = %90
  %94 = load ptr, ptr %6, align 8
  %95 = getelementptr inbounds nuw %struct._packet_info, ptr %94, i32 0, i32 1
  %96 = load ptr, ptr %95, align 8
  call void @col_append_str(ptr noundef %96, i32 noundef 25, ptr noundef @.str.3378)
  br label %97

97:                                               ; preds = %93, %90
  %98 = load ptr, ptr %6, align 8
  %99 = getelementptr inbounds nuw %struct._packet_info, ptr %98, i32 0, i32 1
  %100 = load ptr, ptr %99, align 8
  call void @col_append_str(ptr noundef %100, i32 noundef 25, ptr noundef @.str.802)
  store i8 1, ptr %10, align 1
  br label %101

101:                                              ; preds = %97, %86
  %102 = load i32, ptr %11, align 4
  %103 = and i32 %102, 16
  %104 = icmp ne i32 %103, 0
  br i1 %104, label %105, label %116

105:                                              ; preds = %101
  %106 = load i8, ptr %10, align 1, !range !8, !noundef !9
  %107 = trunc i8 %106 to i1
  br i1 %107, label %108, label %112

108:                                              ; preds = %105
  %109 = load ptr, ptr %6, align 8
  %110 = getelementptr inbounds nuw %struct._packet_info, ptr %109, i32 0, i32 1
  %111 = load ptr, ptr %110, align 8
  call void @col_append_str(ptr noundef %111, i32 noundef 25, ptr noundef @.str.3378)
  br label %112

112:                                              ; preds = %108, %105
  %113 = load ptr, ptr %6, align 8
  %114 = getelementptr inbounds nuw %struct._packet_info, ptr %113, i32 0, i32 1
  %115 = load ptr, ptr %114, align 8
  call void @col_append_str(ptr noundef %115, i32 noundef 25, ptr noundef @.str.803)
  store i8 1, ptr %10, align 1
  br label %116

116:                                              ; preds = %112, %101
  %117 = load i32, ptr %11, align 4
  %118 = and i32 %117, 32
  %119 = icmp ne i32 %118, 0
  br i1 %119, label %120, label %131

120:                                              ; preds = %116
  %121 = load i8, ptr %10, align 1, !range !8, !noundef !9
  %122 = trunc i8 %121 to i1
  br i1 %122, label %123, label %127

123:                                              ; preds = %120
  %124 = load ptr, ptr %6, align 8
  %125 = getelementptr inbounds nuw %struct._packet_info, ptr %124, i32 0, i32 1
  %126 = load ptr, ptr %125, align 8
  call void @col_append_str(ptr noundef %126, i32 noundef 25, ptr noundef @.str.3378)
  br label %127

127:                                              ; preds = %123, %120
  %128 = load ptr, ptr %6, align 8
  %129 = getelementptr inbounds nuw %struct._packet_info, ptr %128, i32 0, i32 1
  %130 = load ptr, ptr %129, align 8
  call void @col_append_str(ptr noundef %130, i32 noundef 25, ptr noundef @.str.3379)
  store i8 1, ptr %10, align 1
  br label %131

131:                                              ; preds = %127, %116
  %132 = load i32, ptr %11, align 4
  %133 = and i32 %132, 64
  %134 = icmp ne i32 %133, 0
  br i1 %134, label %135, label %146

135:                                              ; preds = %131
  %136 = load i8, ptr %10, align 1, !range !8, !noundef !9
  %137 = trunc i8 %136 to i1
  br i1 %137, label %138, label %142

138:                                              ; preds = %135
  %139 = load ptr, ptr %6, align 8
  %140 = getelementptr inbounds nuw %struct._packet_info, ptr %139, i32 0, i32 1
  %141 = load ptr, ptr %140, align 8
  call void @col_append_str(ptr noundef %141, i32 noundef 25, ptr noundef @.str.3378)
  br label %142

142:                                              ; preds = %138, %135
  %143 = load ptr, ptr %6, align 8
  %144 = getelementptr inbounds nuw %struct._packet_info, ptr %143, i32 0, i32 1
  %145 = load ptr, ptr %144, align 8
  call void @col_append_str(ptr noundef %145, i32 noundef 25, ptr noundef @.str.3380)
  store i8 1, ptr %10, align 1
  br label %146

146:                                              ; preds = %142, %131
  %147 = load i32, ptr %11, align 4
  %148 = and i32 %147, 128
  %149 = icmp ne i32 %148, 0
  br i1 %149, label %150, label %161

150:                                              ; preds = %146
  %151 = load i8, ptr %10, align 1, !range !8, !noundef !9
  %152 = trunc i8 %151 to i1
  br i1 %152, label %153, label %157

153:                                              ; preds = %150
  %154 = load ptr, ptr %6, align 8
  %155 = getelementptr inbounds nuw %struct._packet_info, ptr %154, i32 0, i32 1
  %156 = load ptr, ptr %155, align 8
  call void @col_append_str(ptr noundef %156, i32 noundef 25, ptr noundef @.str.3378)
  br label %157

157:                                              ; preds = %153, %150
  %158 = load ptr, ptr %6, align 8
  %159 = getelementptr inbounds nuw %struct._packet_info, ptr %158, i32 0, i32 1
  %160 = load ptr, ptr %159, align 8
  call void @col_append_str(ptr noundef %160, i32 noundef 25, ptr noundef @.str.3381)
  br label %161

161:                                              ; preds = %157, %146
  %162 = load i32, ptr %11, align 4
  %163 = icmp ne i32 %162, 0
  br i1 %163, label %168, label %164

164:                                              ; preds = %161
  %165 = load ptr, ptr %6, align 8
  %166 = getelementptr inbounds nuw %struct._packet_info, ptr %165, i32 0, i32 1
  %167 = load ptr, ptr %166, align 8
  call void @col_append_str(ptr noundef %167, i32 noundef 25, ptr noundef @.str.3382)
  br label %168

168:                                              ; preds = %164, %161
  %169 = load i32, ptr %9, align 4
  %170 = add i32 %169, 1
  store i32 %170, ptr %9, align 4
  %171 = load i32, ptr %9, align 4
  call void @llvm.lifetime.end.p0(i64 4, ptr %11) #11
  call void @llvm.lifetime.end.p0(i64 1, ptr %10) #11
  call void @llvm.lifetime.end.p0(i64 4, ptr %9) #11
  ret i32 %171
}