; Function Attrs: null_pointer_is_valid sspstrong uwtable
define internal noundef i32 @dissect_usb_hid_boot_keyboard_output_report(ptr noundef %0, ptr noundef readonly captures(none) %1, ptr noundef %2, ptr readnone captures(none) %3) #0 {
  %5 = load i32, ptr @hf_usbhid_boot_report_keyboard_leds_constants, align 4
  %6 = tail call ptr @proto_tree_add_item(ptr noundef %2, i32 noundef %5, ptr noundef %0, i32 noundef 0, i32 noundef 1, i32 noundef 0)
  %7 = load i32, ptr @hf_usbhid_boot_report_keyboard_leds_kana, align 4
  %8 = tail call ptr @proto_tree_add_item(ptr noundef %2, i32 noundef %7, ptr noundef %0, i32 noundef 0, i32 noundef 1, i32 noundef 0)
  %9 = load i32, ptr @hf_usbhid_boot_report_keyboard_leds_compose, align 4
  %10 = tail call ptr @proto_tree_add_item(ptr noundef %2, i32 noundef %9, ptr noundef %0, i32 noundef 0, i32 noundef 1, i32 noundef 0)
  %11 = load i32, ptr @hf_usbhid_boot_report_keyboard_leds_scroll_lock, align 4
  %12 = tail call ptr @proto_tree_add_item(ptr noundef %2, i32 noundef %11, ptr noundef %0, i32 noundef 0, i32 noundef 1, i32 noundef 0)
  %13 = load i32, ptr @hf_usbhid_boot_report_keyboard_leds_caps_lock, align 4
  %14 = tail call ptr @proto_tree_add_item(ptr noundef %2, i32 noundef %13, ptr noundef %0, i32 noundef 0, i32 noundef 1, i32 noundef 0)
  %15 = load i32, ptr @hf_usbhid_boot_report_keyboard_leds_num_lock, align 4
  %16 = tail call ptr @proto_tree_add_item(ptr noundef %2, i32 noundef %15, ptr noundef %0, i32 noundef 0, i32 noundef 1, i32 noundef 0)
  %17 = tail call zeroext i8 @tvb_get_uint8(ptr noundef %0, i32 noundef 0)
  %18 = zext i8 %17 to i32
  %19 = getelementptr inbounds nuw i8, ptr %1, i64 8
  %20 = load ptr, ptr %19, align 8
  tail call void @col_append_str(ptr noundef %20, i32 noundef 25, ptr noundef nonnull @.str.3377)
  %21 = and i32 %18, 1
  %.not = icmp eq i32 %21, 0
  br i1 %.not, label %24, label %22

22:                                               ; preds = %4
  %23 = load ptr, ptr %19, align 8
  tail call void @col_append_str(ptr noundef %23, i32 noundef 25, ptr noundef nonnull @.str.3286)
  br label %24

24:                                               ; preds = %22, %4
  %.0 = phi i8 [ 1, %22 ], [ 0, %4 ]
  %25 = and i32 %18, 2
  %.not54 = icmp eq i32 %25, 0
  br i1 %.not54, label %32, label %26

26:                                               ; preds = %24
  %27 = trunc nuw i8 %.0 to i1
  br i1 %27, label %28, label %30

28:                                               ; preds = %26
  %29 = load ptr, ptr %19, align 8
  tail call void @col_append_str(ptr noundef %29, i32 noundef 25, ptr noundef nonnull @.str.3378)
  br label %30

30:                                               ; preds = %28, %26
  %31 = load ptr, ptr %19, align 8
  tail call void @col_append_str(ptr noundef %31, i32 noundef 25, ptr noundef nonnull @.str.3261)
  br label %32

32:                                               ; preds = %30, %24
  %.1 = phi i8 [ 1, %30 ], [ %.0, %24 ]
  %33 = and i32 %18, 4
  %.not55 = icmp eq i32 %33, 0
  br i1 %.not55, label %40, label %34

34:                                               ; preds = %32
  %35 = trunc nuw i8 %.1 to i1
  br i1 %35, label %36, label %38

36:                                               ; preds = %34
  %37 = load ptr, ptr %19, align 8
  tail call void @col_append_str(ptr noundef %37, i32 noundef 25, ptr noundef nonnull @.str.3378)
  br label %38

38:                                               ; preds = %36, %34
  %39 = load ptr, ptr %19, align 8
  tail call void @col_append_str(ptr noundef %39, i32 noundef 25, ptr noundef nonnull @.str.3275)
  br label %40

40:                                               ; preds = %38, %32
  %.2 = phi i8 [ 1, %38 ], [ %.1, %32 ]
  %41 = and i32 %18, 8
  %.not56 = icmp eq i32 %41, 0
  br i1 %.not56, label %48, label %42

42:                                               ; preds = %40
  %43 = trunc nuw i8 %.2 to i1
  br i1 %43, label %44, label %46

44:                                               ; preds = %42
  %45 = load ptr, ptr %19, align 8
  tail call void @col_append_str(ptr noundef %45, i32 noundef 25, ptr noundef nonnull @.str.3378)
  br label %46

46:                                               ; preds = %44, %42
  %47 = load ptr, ptr %19, align 8
  tail call void @col_append_str(ptr noundef %47, i32 noundef 25, ptr noundef nonnull @.str.802)
  br label %48

48:                                               ; preds = %46, %40
  %.3 = phi i8 [ 1, %46 ], [ %.2, %40 ]
  %49 = and i32 %18, 16
  %.not57 = icmp eq i32 %49, 0
  br i1 %.not57, label %56, label %50

50:                                               ; preds = %48
  %51 = trunc nuw i8 %.3 to i1
  br i1 %51, label %52, label %54

52:                                               ; preds = %50
  %53 = load ptr, ptr %19, align 8
  tail call void @col_append_str(ptr noundef %53, i32 noundef 25, ptr noundef nonnull @.str.3378)
  br label %54

54:                                               ; preds = %52, %50
  %55 = load ptr, ptr %19, align 8
  tail call void @col_append_str(ptr noundef %55, i32 noundef 25, ptr noundef nonnull @.str.803)
  br label %56

56:                                               ; preds = %54, %48
  %.4 = phi i8 [ 1, %54 ], [ %.3, %48 ]
  %57 = and i32 %18, 32
  %.not58 = icmp eq i32 %57, 0
  br i1 %.not58, label %64, label %58

58:                                               ; preds = %56
  %59 = trunc nuw i8 %.4 to i1
  br i1 %59, label %60, label %62

60:                                               ; preds = %58
  %61 = load ptr, ptr %19, align 8
  tail call void @col_append_str(ptr noundef %61, i32 noundef 25, ptr noundef nonnull @.str.3378)
  br label %62

62:                                               ; preds = %60, %58
  %63 = load ptr, ptr %19, align 8
  tail call void @col_append_str(ptr noundef %63, i32 noundef 25, ptr noundef nonnull @.str.3379)
  br label %64

64:                                               ; preds = %62, %56
  %.5 = phi i8 [ 1, %62 ], [ %.4, %56 ]
  %65 = and i32 %18, 64
  %.not59 = icmp eq i32 %65, 0
  br i1 %.not59, label %72, label %66

66:                                               ; preds = %64
  %67 = trunc nuw i8 %.5 to i1
  br i1 %67, label %68, label %70

68:                                               ; preds = %66
  %69 = load ptr, ptr %19, align 8
  tail call void @col_append_str(ptr noundef %69, i32 noundef 25, ptr noundef nonnull @.str.3378)
  br label %70

70:                                               ; preds = %68, %66
  %71 = load ptr, ptr %19, align 8
  tail call void @col_append_str(ptr noundef %71, i32 noundef 25, ptr noundef nonnull @.str.3380)
  br label %72

72:                                               ; preds = %70, %64
  %.6 = phi i8 [ 1, %70 ], [ %.5, %64 ]
  %.not60 = icmp sgt i8 %17, -1
  br i1 %.not60, label %77, label %73

73:                                               ; preds = %72
  %74 = trunc nuw i8 %.6 to i1
  br i1 %74, label %75, label %.sink.split

75:                                               ; preds = %73
  %76 = load ptr, ptr %19, align 8
  tail call void @col_append_str(ptr noundef %76, i32 noundef 25, ptr noundef nonnull @.str.3378)
  br label %.sink.split

77:                                               ; preds = %72
  %.not61 = icmp eq i8 %17, 0
  br i1 %.not61, label %.sink.split, label %79

.sink.split:                                      ; preds = %77, %75, %73
  %.str.3381.sink = phi ptr [ @.str.3381, %73 ], [ @.str.3381, %75 ], [ @.str.3382, %77 ]
  %78 = load ptr, ptr %19, align 8
  tail call void @col_append_str(ptr noundef %78, i32 noundef 25, ptr noundef nonnull %.str.3381.sink)
  br label %79

79:                                               ; preds = %.sink.split, %77
  ret i32 1
}